target datalayout = "e-m:e-p270:32:32-p271:32:32-p272:64:64-i64:64-i128:128-f80:128-n8:16:32:64-S128"
target triple = "x86_64-pc-linux-gnu"

%struct.dlist_head = type { %struct.dlist_node }
%struct.dlist_node = type { ptr, ptr }
%struct.BackendTypeMask = type { i32 }
%struct.PMChild = type { i32, i32, i32, ptr, i8, %struct.dlist_node }
%struct.dlist_iter = type { ptr, ptr }

@.str.4 = private unnamed_addr constant [13 x i8] c"postmaster.c\00", align 1
@ActiveChildList = external global %struct.dlist_head, align 8
@.str.82 = private unnamed_addr constant [31 x i8] c"%s process %d is still running\00", align 1
@__func__.CountChildren = private unnamed_addr constant [14 x i8] c"CountChildren\00", align 1

; Function Attrs: inlinehint nounwind uwtable
define internal zeroext i1 @btmask_contains(i32 %0, i32 noundef %1) #5 {
  %3 = alloca %struct.BackendTypeMask, align 4
  %4 = alloca i32, align 4
  %5 = getelementptr inbounds nuw %struct.BackendTypeMask, ptr %3, i32 0, i32 0
  store i32 %0, ptr %5, align 4
  store i32 %1, ptr %4, align 4
  %6 = getelementptr inbounds nuw %struct.BackendTypeMask, ptr %3, i32 0, i32 0
  %7 = load i32, ptr %6, align 4
  %8 = load i32, ptr %4, align 4
  %9 = shl i32 1, %8
  %10 = and i32 %7, %9
  %11 = icmp ne i32 %10, 0
  ret i1 %11
}

; Function Attrs: nounwind uwtable
define internal i32 @CountChildren(i32 %0) #2 {
  %2 = alloca %struct.BackendTypeMask, align 4
  %3 = alloca %struct.dlist_iter, align 8
  %4 = alloca i32, align 4
  %5 = alloca i32, align 4
  %6 = alloca i32, align 4
  %7 = alloca ptr, align 8
  %8 = alloca i32, align 4
  %9 = alloca i32, align 4
  %10 = alloca i32, align 4
  %11 = getelementptr inbounds nuw %struct.BackendTypeMask, ptr %2, i32 0, i32 0
  store i32 %0, ptr %11, align 4
  call void @llvm.lifetime.start.p0(i64 16, ptr %3) #15
  call void @llvm.lifetime.start.p0(i64 4, ptr %4) #15
  store i32 0, ptr %4, align 4
  br label %12

12:                                               ; preds = %1
  br label %13

13:                                               ; preds = %12
  br label %14

14:                                               ; preds = %13
  store i32 1, ptr %5, align 4
  br label %15

15:                                               ; preds = %14
  br label %16

16:                                               ; preds = %15
  br label %17

17:                                               ; preds = %16
  store i32 1, ptr %6, align 4
  %18 = getelementptr inbounds nuw %struct.dlist_iter, ptr %3, i32 0, i32 1
  store ptr @ActiveChildList, ptr %18, align 8
  %19 = getelementptr inbounds nuw %struct.dlist_iter, ptr %3, i32 0, i32 1
  %20 = load ptr, ptr %19, align 8
  %21 = getelementptr inbounds nuw %struct.dlist_node, ptr %20, i32 0, i32 1
  %22 = load ptr, ptr %21, align 8
  %23 = icmp ne ptr %22, null
  br i1 %23, label %24, label %29

24:                                               ; preds = %17
  %25 = getelementptr inbounds nuw %struct.dlist_iter, ptr %3, i32 0, i32 1
  %26 = load ptr, ptr %25, align 8
  %27 = getelementptr inbounds nuw %struct.dlist_node, ptr %26, i32 0, i32 1
  %28 = load ptr, ptr %27, align 8
  br label %32

29:                                               ; preds = %17
  %30 = getelementptr inbounds nuw %struct.dlist_iter, ptr %3, i32 0, i32 1
  %31 = load ptr, ptr %30, align 8
  br label %32

32:                                               ; preds = %29, %24
  %33 = phi ptr [ %28, %24 ], [ %31, %29 ]
  %34 = getelementptr inbounds nuw %struct.dlist_iter, ptr %3, i32 0, i32 0
  store ptr %33, ptr %34, align 8
  br label %35

35:                                               ; preds = %105, %32
  %36 = getelementptr inbounds nuw %struct.dlist_iter, ptr %3, i32 0, i32 0
  %37 = load ptr, ptr %36, align 8
  %38 = getelementptr inbounds nuw %struct.dlist_iter, ptr %3, i32 0, i32 1
  %39 = load ptr, ptr %38, align 8
  %40 = icmp ne ptr %37, %39
  br i1 %40, label %41, label %111

41:                                               ; preds = %35
  call void @llvm.lifetime.start.p0(i64 8, ptr %7) #15
  br label %42

42:                                               ; preds = %41
  br label %43

43:                                               ; preds = %42
  br label %44

44:                                               ; preds = %43
  store i32 1, ptr %8, align 4
  br label %45

45:                                               ; preds = %44
  br label %46

46:                                               ; preds = %45
  br label %47

47:                                               ; preds = %46
  store i32 1, ptr %9, align 4
  %48 = getelementptr inbounds nuw %struct.dlist_iter, ptr %3, i32 0, i32 0
  %49 = load ptr, ptr %48, align 8
  %50 = getelementptr inbounds i8, ptr %49, i64 -32
  store ptr %50, ptr %7, align 8
  %51 = getelementptr inbounds nuw %struct.BackendTypeMask, ptr %2, i32 0, i32 0
  %52 = load i32, ptr %51, align 4
  %53 = call zeroext i1 @btmask_contains(i32 %52, i32 noundef 6)
  %54 = zext i1 %53 to i32
  %55 = getelementptr inbounds nuw %struct.BackendTypeMask, ptr %2, i32 0, i32 0
  %56 = load i32, ptr %55, align 4
  %57 = call zeroext i1 @btmask_contains(i32 %56, i32 noundef 1)
  %58 = zext i1 %57 to i32
  %59 = icmp ne i32 %54, %58
  br i1 %59, label %60, label %74

60:                                               ; preds = %47
  %61 = load ptr, ptr %7, align 8
  %62 = getelementptr inbounds nuw %struct.PMChild, ptr %61, i32 0, i32 2
  %63 = load i32, ptr %62, align 8
  %64 = icmp eq i32 %63, 1
  br i1 %64, label %65, label %74

65:                                               ; preds = %60
  %66 = load ptr, ptr %7, align 8
  %67 = getelementptr inbounds nuw %struct.PMChild, ptr %66, i32 0, i32 1
  %68 = load i32, ptr %67, align 4
  %69 = call zeroext i1 @IsPostmasterChildWalSender(i32 noundef %68)
  br i1 %69, label %70, label %73

70:                                               ; preds = %65
  %71 = load ptr, ptr %7, align 8
  %72 = getelementptr inbounds nuw %struct.PMChild, ptr %71, i32 0, i32 2
  store i32 6, ptr %72, align 8
  br label %73

73:                                               ; preds = %70, %65
  br label %74

74:                                               ; preds = %73, %60, %47
  %75 = load ptr, ptr %7, align 8
  %76 = getelementptr inbounds nuw %struct.PMChild, ptr %75, i32 0, i32 2
  %77 = load i32, ptr %76, align 8
  %78 = getelementptr inbounds nuw %struct.BackendTypeMask, ptr %2, i32 0, i32 0
  %79 = load i32, ptr %78, align 4
  %80 = call zeroext i1 @btmask_contains(i32 %79, i32 noundef %77)
  br i1 %80, label %82, label %81

81:                                               ; preds = %74
  store i32 8, ptr %10, align 4
  br label %102

82:                                               ; preds = %74
  br label %83

83:                                               ; preds = %82
  br i1 false, label %84, label %86

84:                                               ; preds = %83
  %85 = call zeroext i1 @errstart_cold(i32 noundef 11, ptr noundef null) #16
  br i1 %85, label %88, label %97

86:                                               ; preds = %83
  %87 = call zeroext i1 @errstart(i32 noundef 11, ptr noundef null)
  br i1 %87, label %88, label %97

88:                                               ; preds = %86, %84
  %89 = load ptr, ptr %7, align 8
  %90 = getelementptr inbounds nuw %struct.PMChild, ptr %89, i32 0, i32 2
  %91 = load i32, ptr %90, align 8
  %92 = call ptr @GetBackendTypeDesc(i32 noundef %91)
  %93 = load ptr, ptr %7, align 8
  %94 = getelementptr inbounds nuw %struct.PMChild, ptr %93, i32 0, i32 0
  %95 = load i32, ptr %94, align 8
  %96 = call i32 (ptr, ...) @errmsg_internal(ptr noundef @.str.82, ptr noundef %92, i32 noundef %95)
  call void @errfinish(ptr noundef @.str.4, i32 noundef 3867, ptr noundef @__func__.CountChildren)
  br label %97

97:                                               ; preds = %88, %86, %84
  br label %98

98:                                               ; preds = %97
  br label %99

99:                                               ; preds = %98
  %100 = load i32, ptr %4, align 4
  %101 = add i32 %100, 1
  store i32 %101, ptr %4, align 4
  store i32 0, ptr %10, align 4
  br label %102

102:                                              ; preds = %99, %81
  call void @llvm.lifetime.end.p0(i64 8, ptr %7) #15
  %103 = load i32, ptr %10, align 4
  switch i32 %103, label %113 [
    i32 0, label %104
    i32 8, label %105
  ]

104:                                              ; preds = %102
  br label %105

105:                                              ; preds = %104, %102
  %106 = getelementptr inbounds nuw %struct.dlist_iter, ptr %3, i32 0, i32 0
  %107 = load ptr, ptr %106, align 8
  %108 = getelementptr inbounds nuw %struct.dlist_node, ptr %107, i32 0, i32 1
  %109 = load ptr, ptr %108, align 8
  %110 = getelementptr inbounds nuw %struct.dlist_iter, ptr %3, i32 0, i32 0
  store ptr %109, ptr %110, align 8
  br label %35, !llvm.loop !20

111:                                              ; preds = %35
  %112 = load i32, ptr %4, align 4
  store i32 1, ptr %10, align 4
  call void @llvm.lifetime.end.p0(i64 4, ptr %4) #15
  call void @llvm.lifetime.end.p0(i64 16, ptr %3) #15
  ret i32 %112

113:                                              ; preds = %102
  unreachable
}