; Function Attrs: nounwind uwtable
define internal fastcc i32 @CountChildren(i32 %0) unnamed_addr #2 {
  %2 = load ptr, ptr getelementptr inbounds nuw (i8, ptr @ActiveChildList, i64 8), align 8
  %.not = icmp eq ptr %2, null
  %.not161922 = icmp eq ptr %2, @ActiveChildList
  %.not1619 = or i1 %.not, %.not161922
  br i1 %.not1619, label %select.unfold._crit_edge, label %.lr.ph

.lr.ph:                                           ; preds = %1
  %3 = and i32 %0, 64
  %4 = icmp ne i32 %3, 0
  %5 = and i32 %0, 2
  %6 = icmp ne i32 %5, 0
  %7 = xor i1 %4, %6
  br i1 %7, label %.lr.ph.split.us, label %.lr.ph.split

.lr.ph.split.us:                                  ; preds = %.lr.ph, %select.unfold.us
  %.sroa.0.021.us = phi ptr [ %31, %select.unfold.us ], [ %2, %.lr.ph ]
  %.020.us = phi i32 [ %.1.us, %select.unfold.us ], [ 0, %.lr.ph ]
  %8 = getelementptr inbounds i8, ptr %.sroa.0.021.us, i64 -32
  %9 = getelementptr inbounds i8, ptr %.sroa.0.021.us, i64 -24
  %10 = load i32, ptr %9, align 8
  %11 = icmp eq i32 %10, 1
  br i1 %11, label %12, label %17

12:                                               ; preds = %.lr.ph.split.us
  %13 = getelementptr inbounds i8, ptr %.sroa.0.021.us, i64 -28
  %14 = load i32, ptr %13, align 4
  %15 = tail call zeroext i1 @IsPostmasterChildWalSender(i32 noundef %14) #18
  br i1 %15, label %16, label %._crit_edge

._crit_edge:                                      ; preds = %12
  %.pre = load i32, ptr %9, align 8
  br label %17

16:                                               ; preds = %12
  store i32 6, ptr %9, align 8
  br label %17

17:                                               ; preds = %._crit_edge, %16, %.lr.ph.split.us
  %18 = phi i32 [ %.pre, %._crit_edge ], [ 6, %16 ], [ %10, %.lr.ph.split.us ]
  %19 = shl nuw i32 1, %18
  %20 = and i32 %19, %0
  %.not18.us = icmp eq i32 %20, 0
  br i1 %.not18.us, label %select.unfold.us, label %21

21:                                               ; preds = %17
  %22 = tail call zeroext i1 @errstart(i32 noundef 11, ptr noundef null) #18
  br i1 %22, label %23, label %28

23:                                               ; preds = %21
  %24 = load i32, ptr %9, align 8
  %25 = tail call ptr @GetBackendTypeDesc(i32 noundef %24) #18
  %26 = load i32, ptr %8, align 8
  %27 = tail call i32 (ptr, ...) @errmsg_internal(ptr noundef nonnull @.str.82, ptr noundef %25, i32 noundef %26) #18
  tail call void @errfinish(ptr noundef nonnull @.str.4, i32 noundef 3867, ptr noundef nonnull @__func__.CountChildren) #18
  br label %28

28:                                               ; preds = %23, %21
  %29 = add i32 %.020.us, 1
  br label %select.unfold.us

select.unfold.us:                                 ; preds = %28, %17
  %.1.us = phi i32 [ %29, %28 ], [ %.020.us, %17 ]
  %30 = getelementptr inbounds nuw i8, ptr %.sroa.0.021.us, i64 8
  %31 = load ptr, ptr %30, align 8
  %.not16.us = icmp eq ptr %31, @ActiveChildList
  br i1 %.not16.us, label %select.unfold._crit_edge, label %.lr.ph.split.us, !llvm.loop !23

.lr.ph.split:                                     ; preds = %.lr.ph, %select.unfold
  %.sroa.0.021 = phi ptr [ %47, %select.unfold ], [ %2, %.lr.ph ]
  %.020 = phi i32 [ %.1, %select.unfold ], [ 0, %.lr.ph ]
  %32 = getelementptr inbounds i8, ptr %.sroa.0.021, i64 -32
  %33 = getelementptr inbounds i8, ptr %.sroa.0.021, i64 -24
  %34 = load i32, ptr %33, align 8
  %35 = shl nuw i32 1, %34
  %36 = and i32 %35, %0
  %.not18 = icmp eq i32 %36, 0
  br i1 %.not18, label %select.unfold, label %37

37:                                               ; preds = %.lr.ph.split
  %38 = tail call zeroext i1 @errstart(i32 noundef 11, ptr noundef null) #18
  br i1 %38, label %39, label %44

39:                                               ; preds = %37
  %40 = load i32, ptr %33, align 8
  %41 = tail call ptr @GetBackendTypeDesc(i32 noundef %40) #18
  %42 = load i32, ptr %32, align 8
  %43 = tail call i32 (ptr, ...) @errmsg_internal(ptr noundef nonnull @.str.82, ptr noundef %41, i32 noundef %42) #18
  tail call void @errfinish(ptr noundef nonnull @.str.4, i32 noundef 3867, ptr noundef nonnull @__func__.CountChildren) #18
  br label %44

44:                                               ; preds = %39, %37
  %45 = add i32 %.020, 1
  br label %select.unfold

select.unfold:                                    ; preds = %.lr.ph.split, %44
  %.1 = phi i32 [ %45, %44 ], [ %.020, %.lr.ph.split ]
  %46 = getelementptr inbounds nuw i8, ptr %.sroa.0.021, i64 8
  %47 = load ptr, ptr %46, align 8
  %.not16 = icmp eq ptr %47, @ActiveChildList
  br i1 %.not16, label %select.unfold._crit_edge, label %.lr.ph.split, !llvm.loop !23

select.unfold._crit_edge:                         ; preds = %select.unfold, %select.unfold.us, %1
  %.0.lcssa = phi i32 [ 0, %1 ], [ %.1.us, %select.unfold.us ], [ %.1, %select.unfold ]
  ret i32 %.0.lcssa
}